; Function Attrs: mustprogress uwtable
define hidden void @_ZN10params_ref4copyERKS_(ptr nocapture noundef nonnull align 8 dereferenceable(8) %this, ptr nocapture noundef nonnull readonly align 8 dereferenceable(8) %src) local_unnamed_addr #3 align 2 personality ptr @__gxx_personality_v0 {
entry:
  %0 = load ptr, ptr %this, align 8
  %cmp = icmp eq ptr %0, null
  br i1 %cmp, label %if.then, label %lor.lhs.false

lor.lhs.false:                                    ; preds = %entry
  %1 = load ptr, ptr %0, align 8
  %cmp.i.i = icmp eq ptr %1, null
  br i1 %cmp.i.i, label %if.then, label %_ZNK6params5emptyEv.exit

_ZNK6params5emptyEv.exit:                         ; preds = %lor.lhs.false
  %arrayidx.i.i = getelementptr inbounds i8, ptr %1, i64 -4
  %2 = load i32, ptr %arrayidx.i.i, align 4
  %cmp3.i.i = icmp eq i32 %2, 0
  br i1 %cmp3.i.i, label %if.then, label %if.else

if.then:                                          ; preds = %lor.lhs.false, %_ZNK6params5emptyEv.exit, %entry
  %3 = load ptr, ptr %src, align 8
  %tobool.not.i = icmp eq ptr %3, null
  br i1 %tobool.not.i, label %if.end.i, label %if.then.i

if.then.i:                                        ; preds = %if.then
  %m_ref_count.i.i = getelementptr inbounds i8, ptr %3, i64 8
  %4 = atomicrmw add ptr %m_ref_count.i.i, i32 1 seq_cst, align 4
  %.pre = load ptr, ptr %this, align 8
  br label %if.end.i

if.end.i:                                         ; preds = %if.then.i, %if.then
  %5 = phi ptr [ %.pre, %if.then.i ], [ %0, %if.then ]
  %tobool4.not.i = icmp eq ptr %5, null
  br i1 %tobool4.not.i, label %_ZN10params_ref3setERKS_.exit, label %if.then5.i

if.then5.i:                                       ; preds = %if.end.i
  %m_ref_count.i4.i = getelementptr inbounds i8, ptr %5, i64 8
  %6 = atomicrmw sub ptr %m_ref_count.i4.i, i32 1 seq_cst, align 4
  %cmp.i.i3 = icmp eq i32 %6, 1
  br i1 %cmp.i.i3, label %if.then.i.i, label %_ZN10params_ref3setERKS_.exit

if.then.i.i:                                      ; preds = %if.then5.i
  invoke void @_ZN6params5resetEv(ptr noundef nonnull align 8 dereferenceable(12) %5)
          to label %invoke.cont.i.i.i.i unwind label %terminate.lpad.i.i.i.i

invoke.cont.i.i.i.i:                              ; preds = %if.then.i.i
  %7 = load ptr, ptr %5, align 8
  %tobool.not.i.i.i.i.i.i.i = icmp eq ptr %7, null
  br i1 %tobool.not.i.i.i.i.i.i.i, label %_Z7deallocI6paramsEvPT_.exit.i.i, label %if.then.i.i.i.i.i.i.i

if.then.i.i.i.i.i.i.i:                            ; preds = %invoke.cont.i.i.i.i
  %add.ptr.i.i.i.i.i.i.i.i = getelementptr inbounds i8, ptr %7, i64 -8
  invoke void @_ZN6memory10deallocateEPv(ptr noundef nonnull %add.ptr.i.i.i.i.i.i.i.i)
          to label %_Z7deallocI6paramsEvPT_.exit.i.i unwind label %terminate.lpad.i.i.i.i.i.i

terminate.lpad.i.i.i.i.i.i:                       ; preds = %if.then.i.i.i.i.i.i.i
  %8 = landingpad { ptr, i32 }
          catch ptr null
  %9 = extractvalue { ptr, i32 } %8, 0
  tail call void @__clang_call_terminate(ptr %9) #17
  unreachable

terminate.lpad.i.i.i.i:                           ; preds = %if.then.i.i
  %10 = landingpad { ptr, i32 }
          catch ptr null
  %11 = extractvalue { ptr, i32 } %10, 0
  tail call void @__clang_call_terminate(ptr %11) #17
  unreachable

_Z7deallocI6paramsEvPT_.exit.i.i:                 ; preds = %if.then.i.i.i.i.i.i.i, %invoke.cont.i.i.i.i
  tail call void @_ZN6memory10deallocateEPv(ptr noundef nonnull %5)
  br label %_ZN10params_ref3setERKS_.exit

_ZN10params_ref3setERKS_.exit:                    ; preds = %if.end.i, %if.then5.i, %_Z7deallocI6paramsEvPT_.exit.i.i
  %12 = load ptr, ptr %src, align 8
  store ptr %12, ptr %this, align 8
  br label %if.end7

if.else:                                          ; preds = %_ZNK6params5emptyEv.exit
  %13 = load ptr, ptr %src, align 8
  %tobool.not.i4 = icmp eq ptr %13, null
  br i1 %tobool.not.i4, label %if.end7, label %if.end.i5

if.end.i5:                                        ; preds = %if.else
  %14 = load ptr, ptr %13, align 8
  %cmp.i.i.i = icmp eq ptr %14, null
  br i1 %cmp.i.i.i, label %if.end7, label %_ZNK10params_ref5emptyEv.exit

_ZNK10params_ref5emptyEv.exit:                    ; preds = %if.end.i5
  %arrayidx.i.i.i = getelementptr inbounds i8, ptr %14, i64 -4
  %15 = load i32, ptr %arrayidx.i.i.i, align 4
  %cmp3.i.i.i = icmp eq i32 %15, 0
  br i1 %cmp3.i.i.i, label %if.end7, label %if.else5

if.else5:                                         ; preds = %_ZNK10params_ref5emptyEv.exit
  tail call void @_ZN10params_ref4initEv(ptr noundef nonnull align 8 dereferenceable(8) %this)
  %16 = load ptr, ptr %src, align 8
  tail call void @_ZN10params_ref9copy_coreEPK6params(ptr noundef nonnull align 8 dereferenceable(8) %this, ptr noundef %16)
  br label %if.end7

if.end7:                                          ; preds = %if.end.i5, %if.else, %_ZNK10params_ref5emptyEv.exit, %if.else5, %_ZN10params_ref3setERKS_.exit
  ret void
}